Certificate:
    Data:
        Version: 3 (0x2)
        Serial Number: 7 (0x7)
        Signature Algorithm: sha256WithRSAEncryption
        Issuer: C=NO, O=GoliathDNS, OU=admin, CN=atle.goliathdns.no, L=Oslo
        Validity
            Not Before: Jun 19 17:46:33 2020 GMT
            Not After : Mar 16 17:46:33 2023 GMT
        Subject: C=NO, ST=Some-State, O=RRR, CN=localhost
        Subject Public Key Info:
            Public Key Algorithm: rsaEncryption
                RSA Public-Key: (4096 bit)
                Modulus:
                    00:c0:b9:45:1e:ef:90:7f:90:d9:42:fa:53:6b:c3:
                    e1:b0:c7:b6:20:81:e6:37:a0:b4:3d:7e:47:b7:0e:
                    78:6f:5e:18:4c:5f:21:90:ef:aa:7d:57:01:cf:31:
                    29:19:55:c7:cd:00:86:f9:09:53:a6:40:70:90:c2:
                    1c:ac:e4:d4:43:64:c1:5b:65:cf:61:4b:00:f8:83:
                    a3:43:1c:5b:59:d6:0b:ef:72:11:31:8c:8c:79:73:
                    ac:e0:16:f0:5b:a3:a1:04:fb:d2:42:27:90:9b:65:
                    5b:2a:13:40:2e:ee:5f:b2:8e:ec:1f:93:8f:db:b1:
                    13:9b:01:f4:d6:8f:3d:2b:32:69:bd:03:1c:2d:b6:
                    c9:a7:b6:f2:4f:ab:90:c9:95:34:ae:9b:8e:88:47:
                    f8:be:58:df:93:58:2e:51:ff:2f:2d:e6:92:f0:40:
                    5c:9b:24:de:bd:cf:11:b1:da:81:61:db:ff:90:cd:
                    5f:14:6a:9e:70:07:d8:b5:b9:9f:20:e4:99:03:10:
                    f4:72:92:24:96:5c:40:64:fe:14:26:96:30:1a:5b:
                    8e:e3:a2:1e:fc:28:00:21:ff:81:62:32:59:44:e7:
                    04:02:35:2b:cd:10:a7:12:ec:d6:85:ad:86:71:83:
                    d7:93:84:90:03:ad:c6:c3:81:37:b7:47:06:bc:08:
                    c7:95:ca:45:b2:51:aa:a9:cb:fb:52:41:92:f1:b8:
                    66:76:66:57:78:74:60:65:5b:e7:85:99:5b:d0:c1:
                    3c:16:31:bd:9c:2a:21:94:4b:6c:b2:c3:b3:c7:c8:
                    d3:05:3f:49:13:24:4d:dc:b5:d0:ea:7c:2b:87:8e:
                    55:ad:80:a9:31:62:a2:c7:be:a2:b1:21:03:32:02:
                    6e:16:7e:aa:22:0d:6d:ec:e2:0c:ec:38:77:89:71:
                    ac:4b:dc:65:6a:ea:a3:32:af:6d:95:6c:50:51:e9:
                    26:c2:07:f3:44:72:df:e8:b5:f7:8a:f7:e8:71:3b:
                    91:7a:c6:e2:3c:54:3a:a8:57:48:46:93:ff:07:70:
                    b7:45:ac:8a:a5:82:3a:93:71:6f:2a:fd:24:47:19:
                    f3:cd:e1:1a:72:cc:2e:c4:47:ee:31:fb:0b:7f:87:
                    62:3b:8b:91:47:df:bf:e4:35:ea:2f:51:38:31:69:
                    f5:34:b3:5a:18:5e:19:00:b3:ff:ef:4a:8b:24:7e:
                    d6:2a:1b:22:c6:6d:99:b1:e5:0b:b4:44:49:0c:09:
                    b2:80:4d:2b:e5:bd:6b:7a:2a:5f:b4:72:e0:5b:84:
                    eb:a5:22:9c:eb:af:af:b5:f7:07:80:93:44:19:84:
                    b5:95:3b:2c:48:37:81:38:b0:82:ae:3d:7d:ee:95:
                    62:8d:65
                Exponent: 65537 (0x10001)
        X509v3 extensions:
            X509v3 Subject Key Identifier: 
                8D:3A:DE:F7:E5:27:FE:CA:74:40:34:34:B4:08:77:0E:77:62:E1:02
            X509v3 Authority Key Identifier: 
                keyid:AD:5A:21:31:A3:E7:05:2A:90:28:6E:A4:38:64:67:67:C9:81:E6:45

            X509v3 Basic Constraints: 
                CA:FALSE
            X509v3 Key Usage: 
                Digital Signature, Key Encipherment
    Signature Algorithm: sha256WithRSAEncryption
         92:84:a9:e1:6c:90:a9:b1:03:42:fe:c9:26:4d:c1:27:b6:85:
         d7:da:64:d9:f7:e9:a7:eb:e9:56:6e:d3:bd:f4:3e:ac:6b:e5:
         d6:9b:16:7f:d4:88:28:a2:46:56:ba:de:9a:34:77:b9:aa:f9:
         df:25:15:17:b1:bb:a4:ab:4e:31:9e:e3:aa:16:cf:52:28:5d:
         0c:15:40:30:56:3b:8a:5b:fb:bc:3a:bc:47:ac:65:3a:a3:6e:
         a2:b1:e1:1a:43:1b:c8:4f:bc:5c:ef:19:6f:94:a0:1c:25:f7:
         a3:67:46:14:b8:1b:48:3e:b7:42:d5:96:68:1c:9b:b7:04:23:
         04:3c:a2:2e:57:97:b5:33:24:5a:ad:69:18:7d:49:ef:35:b0:
         c2:c8:d6:f7:bc:a2:cd:61:8e:93:5c:f4:71:5e:d0:ce:01:b2:
         73:31:bd:81:44:45:8b:f8:4c:89:ea:b3:6f:a3:3d:92:f0:51:
         00:85:b0:1e:e2:b2:0d:83:23:21:70:d7:3b:d7:43:a1:b2:9f:
         4e:c0:19:8f:8d:00:8b:04:2f:4b:56:69:11:7b:a3:93:b7:ca:
         f1:b1:ff:b1:c5:9e:11:b8:b9:bb:26:ba:22:03:19:08:73:d9:
         01:04:a6:09:bd:9c:e3:21:01:d4:5d:45:83:b1:a2:f6:6d:fb:
         ba:12:b2:bb:20:3c:d0:f6:7c:42:20:2f:1e:db:a2:cd:64:a8:
         78:5b:1b:20:e1:2f:90:7c:b0:90:43:92:ae:4d:0d:0b:97:f8:
         12:ad:79:49:0d:b7:c5:73:bb:00:37:fb:32:87:2d:e3:6d:72:
         4a:94:73:b5:3b:f8:79:9e:6f:55:c0:61:b6:c5:5a:5a:df:0f:
         0a:49:34:b7:06:3c:53:4c:fc:f0:6e:e5:86:95:0d:d9:7e:72:
         1e:f2:cf:45:c9:62:d2:30:ed:99:bf:f1:1f:29:fb:1b:4a:56:
         95:fd:31:0f:08:1c:5d:39:18:da:ee:d9:39:fa:c4:c4:2e:7e:
         b3:f4:16:3d:3c:27:a6:ac:5f:91:4e:7c:d6:46:cf:fa:b4:ec:
         63:0c:a2:f1:07:4e:38:c7:94:cb:2a:27:6a:3a:c7:a2:42:81:
         b8:ea:21:94:44:91:f1:67:4b:7f:77:76:ad:ec:6a:ac:0d:e9:
         86:10:54:0f:b5:34:05:72:85:bb:cc:8f:45:1e:a9:ba:7a:74:
         9d:e0:44:86:91:36:1e:fb:f7:1f:75:91:cf:1d:e2:4e:13:7d:
         70:c7:14:22:62:c2:fd:0e:94:df:75:73:08:94:87:72:7c:5f:
         b9:63:aa:ff:b2:04:b4:96:e1:33:4a:2b:53:6f:8d:70:c8:89:
         08:ba:65:19:05:1c:3c:0a
-----BEGIN CERTIFICATE-----
MIIFdzCCA1+gAwIBAgIBBzANBgkqhkiG9w0BAQsFADBeMQswCQYDVQQGEwJOTzET
MBEGA1UECgwKR29saWF0aEROUzEOMAwGA1UECwwFYWRtaW4xGzAZBgNVBAMMEmF0
bGUuZ29saWF0aGRucy5ubzENMAsGA1UEBwwET3NsbzAeFw0yMDA2MTkxNzQ2MzNa
Fw0yMzAzMTYxNzQ2MzNaMEQxCzAJBgNVBAYTAk5PMRMwEQYDVQQIDApTb21lLVN0
YXRlMQwwCgYDVQQKDANSUlIxEjAQBgNVBAMMCWxvY2FsaG9zdDCCAiIwDQYJKoZI
hvcNAQEBBQADggIPADCCAgoCggIBAMC5RR7vkH+Q2UL6U2vD4bDHtiCB5jegtD1+
R7cOeG9eGExfIZDvqn1XAc8xKRlVx80AhvkJU6ZAcJDCHKzk1ENkwVtlz2FLAPiD
o0McW1nWC+9yETGMjHlzrOAW8FujoQT70kInkJtlWyoTQC7uX7KO7B+Tj9uxE5sB
9NaPPSsyab0DHC22yae28k+rkMmVNK6bjohH+L5Y35NYLlH/Ly3mkvBAXJsk3r3P
EbHagWHb/5DNXxRqnnAH2LW5nyDkmQMQ9HKSJJZcQGT+FCaWMBpbjuOiHvwoACH/
gWIyWUTnBAI1K80QpxLs1oWthnGD15OEkAOtxsOBN7dHBrwIx5XKRbJRqqnL+1JB
kvG4ZnZmV3h0YGVb54WZW9DBPBYxvZwqIZRLbLLDs8fI0wU/SRMkTdy10Op8K4eO
Va2AqTFiose+orEhAzICbhZ+qiINbeziDOw4d4lxrEvcZWrqozKvbZVsUFHpJsIH
80Ry3+i194r36HE7kXrG4jxUOqhXSEaT/wdwt0WsiqWCOpNxbyr9JEcZ883hGnLM
LsRH7jH7C3+HYjuLkUffv+Q16i9RODFp9TSzWhheGQCz/+9KiyR+1iobIsZtmbHl
C7RESQwJsoBNK+W9a3oqX7Ry4FuE66UinOuvr7X3B4CTRBmEtZU7LEg3gTiwgq49
fe6VYo1lAgMBAAGjWjBYMB0GA1UdDgQWBBSNOt735Sf+ynRANDS0CHcOd2LhAjAf
BgNVHSMEGDAWgBStWiExo+cFKpAobqQ4ZGdnyYHmRTAJBgNVHRMEAjAAMAsGA1Ud
DwQEAwIFoDANBgkqhkiG9w0BAQsFAAOCAgEAkoSp4WyQqbEDQv7JJk3BJ7aF19pk
2ffpp+vpVm7TvfQ+rGvl1psWf9SIKKJGVrremjR3uar53yUVF7G7pKtOMZ7jqhbP
UihdDBVAMFY7ilv7vDq8R6xlOqNuorHhGkMbyE+8XO8Zb5SgHCX3o2dGFLgbSD63
QtWWaBybtwQjBDyiLleXtTMkWq1pGH1J7zWwwsjW97yizWGOk1z0cV7QzgGyczG9
gURFi/hMieqzb6M9kvBRAIWwHuKyDYMjIXDXO9dDobKfTsAZj40AiwQvS1ZpEXuj
k7fK8bH/scWeEbi5uya6IgMZCHPZAQSmCb2c4yEB1F1Fg7Gi9m37uhKyuyA80PZ8
QiAvHtuizWSoeFsbIOEvkHywkEOSrk0NC5f4Eq15SQ23xXO7ADf7Moct421ySpRz
tTv4eZ5vVcBhtsVaWt8PCkk0twY8U0z88G7lhpUN2X5yHvLPRcli0jDtmb/xHyn7
G0pWlf0xDwgcXTkY2u7ZOfrExC5+s/QWPTwnpqxfkU581kbP+rTsYwyi8QdOOMeU
yyonajrHokKBuOohlESR8WdLf3d2rexqrA3phhBUD7U0BXKFu8yPRR6punp0neBE
hpE2Hvv3H3WRzx3iThN9cMcUImLC/Q6U33VzCJSHcnxfuWOq/7IEtJbhM0orU2+N
cMiJCLplGQUcPAo=
-----END CERTIFICATE-----
