Certificate:
    Data:
        Version: 3 (0x2)
        Serial Number: 9 (0x9)
        Signature Algorithm: sha256WithRSAEncryption
        Issuer: C=NO, O=GoliathDNS, OU=admin, CN=atle.goliathdns.no, L=Oslo
        Validity
            Not Before: Mar 17 18:16:05 2023 GMT
            Not After : Dec 11 18:16:05 2025 GMT
        Subject: C=NO, ST=Some-State, O=RRR, CN=localhost
        Subject Public Key Info:
            Public Key Algorithm: rsaEncryption
                RSA Public-Key: (4096 bit)
                Modulus:
                    00:c0:b9:45:1e:ef:90:7f:90:d9:42:fa:53:6b:c3:
                    e1:b0:c7:b6:20:81:e6:37:a0:b4:3d:7e:47:b7:0e:
                    78:6f:5e:18:4c:5f:21:90:ef:aa:7d:57:01:cf:31:
                    29:19:55:c7:cd:00:86:f9:09:53:a6:40:70:90:c2:
                    1c:ac:e4:d4:43:64:c1:5b:65:cf:61:4b:00:f8:83:
                    a3:43:1c:5b:59:d6:0b:ef:72:11:31:8c:8c:79:73:
                    ac:e0:16:f0:5b:a3:a1:04:fb:d2:42:27:90:9b:65:
                    5b:2a:13:40:2e:ee:5f:b2:8e:ec:1f:93:8f:db:b1:
                    13:9b:01:f4:d6:8f:3d:2b:32:69:bd:03:1c:2d:b6:
                    c9:a7:b6:f2:4f:ab:90:c9:95:34:ae:9b:8e:88:47:
                    f8:be:58:df:93:58:2e:51:ff:2f:2d:e6:92:f0:40:
                    5c:9b:24:de:bd:cf:11:b1:da:81:61:db:ff:90:cd:
                    5f:14:6a:9e:70:07:d8:b5:b9:9f:20:e4:99:03:10:
                    f4:72:92:24:96:5c:40:64:fe:14:26:96:30:1a:5b:
                    8e:e3:a2:1e:fc:28:00:21:ff:81:62:32:59:44:e7:
                    04:02:35:2b:cd:10:a7:12:ec:d6:85:ad:86:71:83:
                    d7:93:84:90:03:ad:c6:c3:81:37:b7:47:06:bc:08:
                    c7:95:ca:45:b2:51:aa:a9:cb:fb:52:41:92:f1:b8:
                    66:76:66:57:78:74:60:65:5b:e7:85:99:5b:d0:c1:
                    3c:16:31:bd:9c:2a:21:94:4b:6c:b2:c3:b3:c7:c8:
                    d3:05:3f:49:13:24:4d:dc:b5:d0:ea:7c:2b:87:8e:
                    55:ad:80:a9:31:62:a2:c7:be:a2:b1:21:03:32:02:
                    6e:16:7e:aa:22:0d:6d:ec:e2:0c:ec:38:77:89:71:
                    ac:4b:dc:65:6a:ea:a3:32:af:6d:95:6c:50:51:e9:
                    26:c2:07:f3:44:72:df:e8:b5:f7:8a:f7:e8:71:3b:
                    91:7a:c6:e2:3c:54:3a:a8:57:48:46:93:ff:07:70:
                    b7:45:ac:8a:a5:82:3a:93:71:6f:2a:fd:24:47:19:
                    f3:cd:e1:1a:72:cc:2e:c4:47:ee:31:fb:0b:7f:87:
                    62:3b:8b:91:47:df:bf:e4:35:ea:2f:51:38:31:69:
                    f5:34:b3:5a:18:5e:19:00:b3:ff:ef:4a:8b:24:7e:
                    d6:2a:1b:22:c6:6d:99:b1:e5:0b:b4:44:49:0c:09:
                    b2:80:4d:2b:e5:bd:6b:7a:2a:5f:b4:72:e0:5b:84:
                    eb:a5:22:9c:eb:af:af:b5:f7:07:80:93:44:19:84:
                    b5:95:3b:2c:48:37:81:38:b0:82:ae:3d:7d:ee:95:
                    62:8d:65
                Exponent: 65537 (0x10001)
        X509v3 extensions:
            X509v3 Subject Key Identifier: 
                8D:3A:DE:F7:E5:27:FE:CA:74:40:34:34:B4:08:77:0E:77:62:E1:02
            X509v3 Authority Key Identifier: 
                keyid:74:57:CA:BA:FD:53:83:EB:66:63:BC:D5:A1:1B:E5:79:15:71:F4:97

            X509v3 Basic Constraints: 
                CA:FALSE
            X509v3 Key Usage: 
                Digital Signature, Key Encipherment
    Signature Algorithm: sha256WithRSAEncryption
         35:51:97:e5:ba:a9:21:90:e0:05:41:5b:1f:4f:9e:6b:ae:bd:
         24:a9:01:8b:2f:46:e7:ea:0a:4b:5f:7f:f3:ff:e3:b7:35:ea:
         ca:76:6f:eb:39:72:94:ad:57:a1:08:b0:8e:6c:da:0e:8f:a9:
         f4:fc:1d:b4:fa:bc:ee:2c:fc:f3:92:25:4d:86:7d:ad:35:9c:
         ac:4d:4f:26:91:dd:ad:af:a0:cf:1b:df:e3:1a:46:ab:46:ad:
         11:78:7b:03:65:93:ec:95:2b:4d:a2:20:35:25:d2:23:52:2e:
         f3:a3:c2:7a:b6:00:9d:ed:71:f9:2f:47:ee:ad:5c:bd:40:ba:
         05:55:c1:e8:68:cb:74:21:b9:39:ab:ed:25:ee:67:2f:46:96:
         da:51:5f:cb:0c:44:06:15:de:f6:c5:e2:56:f9:b7:c0:49:11:
         db:e0:fa:fd:d1:6c:83:45:73:8b:a1:db:1c:17:1b:28:5a:9f:
         0e:07:38:a4:c6:32:05:0a:0f:63:18:12:b3:b6:93:40:0e:e0:
         8b:18:95:c6:bc:27:ac:9e:89:5b:48:41:13:5a:ac:cb:94:bb:
         47:3b:31:53:b2:0f:40:59:ce:02:fa:49:8e:d7:af:dd:dc:33:
         22:2d:5b:b0:d8:3c:4c:3d:7f:2b:13:a4:9b:1f:63:a9:fb:cd:
         74:2d:18:94:de:2f:19:8f:46:12:bf:7f:56:f1:2e:a4:5c:6f:
         e6:4d:c5:c8:a0:32:37:36:b6:0f:7c:5a:1f:d4:89:b4:f6:4e:
         eb:ed:09:ae:6f:5c:31:e9:eb:6f:14:d2:56:c9:2f:32:47:07:
         72:ac:7e:61:32:9f:78:54:02:08:90:88:97:ef:c3:14:5a:c5:
         48:91:17:93:d9:51:f0:d1:26:b8:4f:bd:9d:66:15:cf:77:04:
         3d:ec:76:29:41:54:f4:21:e1:3e:c6:56:5a:8c:62:9d:9d:dd:
         93:05:c5:38:43:3f:68:93:7c:ef:e7:dd:d8:04:9f:b4:9e:94:
         83:d7:8b:c5:ce:c3:ae:74:7c:c5:9a:61:db:5d:1e:4a:af:41:
         d3:e7:5a:71:77:d4:0d:6e:ee:59:85:c2:d9:29:27:1a:57:c6:
         e8:18:a0:f9:c6:9a:b3:3a:dd:ba:31:01:59:6d:62:70:d7:14:
         fa:8d:43:05:da:27:3a:1d:c3:3a:ef:e3:94:ab:2d:70:a2:69:
         fb:fb:d6:6c:44:ac:bc:05:37:93:eb:f4:58:74:13:4d:43:31:
         e2:52:f3:63:23:12:7b:8e:34:56:14:30:db:e8:fc:ee:8e:db:
         67:6a:ee:be:ee:4f:e6:4f:ef:e2:86:85:30:ef:6b:78:16:c9:
         7e:5b:d3:bf:33:19:a3:66
-----BEGIN CERTIFICATE-----
MIIFdzCCA1+gAwIBAgIBCTANBgkqhkiG9w0BAQsFADBeMQswCQYDVQQGEwJOTzET
MBEGA1UECgwKR29saWF0aEROUzEOMAwGA1UECwwFYWRtaW4xGzAZBgNVBAMMEmF0
bGUuZ29saWF0aGRucy5ubzENMAsGA1UEBwwET3NsbzAeFw0yMzAzMTcxODE2MDVa
Fw0yNTEyMTExODE2MDVaMEQxCzAJBgNVBAYTAk5PMRMwEQYDVQQIDApTb21lLVN0
YXRlMQwwCgYDVQQKDANSUlIxEjAQBgNVBAMMCWxvY2FsaG9zdDCCAiIwDQYJKoZI
hvcNAQEBBQADggIPADCCAgoCggIBAMC5RR7vkH+Q2UL6U2vD4bDHtiCB5jegtD1+
R7cOeG9eGExfIZDvqn1XAc8xKRlVx80AhvkJU6ZAcJDCHKzk1ENkwVtlz2FLAPiD
o0McW1nWC+9yETGMjHlzrOAW8FujoQT70kInkJtlWyoTQC7uX7KO7B+Tj9uxE5sB
9NaPPSsyab0DHC22yae28k+rkMmVNK6bjohH+L5Y35NYLlH/Ly3mkvBAXJsk3r3P
EbHagWHb/5DNXxRqnnAH2LW5nyDkmQMQ9HKSJJZcQGT+FCaWMBpbjuOiHvwoACH/
gWIyWUTnBAI1K80QpxLs1oWthnGD15OEkAOtxsOBN7dHBrwIx5XKRbJRqqnL+1JB
kvG4ZnZmV3h0YGVb54WZW9DBPBYxvZwqIZRLbLLDs8fI0wU/SRMkTdy10Op8K4eO
Va2AqTFiose+orEhAzICbhZ+qiINbeziDOw4d4lxrEvcZWrqozKvbZVsUFHpJsIH
80Ry3+i194r36HE7kXrG4jxUOqhXSEaT/wdwt0WsiqWCOpNxbyr9JEcZ883hGnLM
LsRH7jH7C3+HYjuLkUffv+Q16i9RODFp9TSzWhheGQCz/+9KiyR+1iobIsZtmbHl
C7RESQwJsoBNK+W9a3oqX7Ry4FuE66UinOuvr7X3B4CTRBmEtZU7LEg3gTiwgq49
fe6VYo1lAgMBAAGjWjBYMB0GA1UdDgQWBBSNOt735Sf+ynRANDS0CHcOd2LhAjAf
BgNVHSMEGDAWgBR0V8q6/VOD62ZjvNWhG+V5FXH0lzAJBgNVHRMEAjAAMAsGA1Ud
DwQEAwIFoDANBgkqhkiG9w0BAQsFAAOCAgEANVGX5bqpIZDgBUFbH0+ea669JKkB
iy9G5+oKS19/8//jtzXqynZv6zlylK1XoQiwjmzaDo+p9PwdtPq87iz885IlTYZ9
rTWcrE1PJpHdra+gzxvf4xpGq0atEXh7A2WT7JUrTaIgNSXSI1Iu86PCerYAne1x
+S9H7q1cvUC6BVXB6GjLdCG5OavtJe5nL0aW2lFfywxEBhXe9sXiVvm3wEkR2+D6
/dFsg0Vzi6HbHBcbKFqfDgc4pMYyBQoPYxgSs7aTQA7gixiVxrwnrJ6JW0hBE1qs
y5S7RzsxU7IPQFnOAvpJjtev3dwzIi1bsNg8TD1/KxOkmx9jqfvNdC0YlN4vGY9G
Er9/VvEupFxv5k3FyKAyNza2D3xaH9SJtPZO6+0Jrm9cMenrbxTSVskvMkcHcqx+
YTKfeFQCCJCIl+/DFFrFSJEXk9lR8NEmuE+9nWYVz3cEPex2KUFU9CHhPsZWWoxi
nZ3dkwXFOEM/aJN87+fd2ASftJ6Ug9eLxc7DrnR8xZph210eSq9B0+dacXfUDW7u
WYXC2SknGlfG6Big+caaszrdujEBWW1icNcU+o1DBdonOh3DOu/jlKstcKJp+/vW
bESsvAU3k+v0WHQTTUMx4lLzYyMSe440VhQw2+j87o7bZ2ruvu5P5k/v4oaFMO9r
eBbJflvTvzMZo2Y=
-----END CERTIFICATE-----
